target datalayout = "e-m:e-p270:32:32-p271:32:32-p272:64:64-i64:64-i128:128-f80:128-n8:16:32:64-S128"
target triple = "x86_64-unknown-linux-gnu"

%"struct.icu_75::ZNStringPoolChunk" = type <{ ptr, i32, [2000 x i16], [4 x i8] }>
%"class.icu_75::ZNStringPool" = type { ptr, ptr }

; Function Attrs: mustprogress nounwind uwtable
define void @_ZN6icu_7512ZNStringPoolD2Ev(ptr noundef nonnull align 8 dereferenceable(16) %this) unnamed_addr #0 align 2 personality ptr @__gxx_personality_v0 {
entry:
  %this.addr = alloca ptr, align 8
  %nextChunk = alloca ptr, align 8
  store ptr %this, ptr %this.addr, align 8
  %this1 = load ptr, ptr %this.addr, align 8
  %fHash = getelementptr inbounds %"class.icu_75::ZNStringPool", ptr %this1, i32 0, i32 1
  %0 = load ptr, ptr %fHash, align 8
  %cmp = icmp ne ptr %0, null
  br i1 %cmp, label %if.then, label %if.end

if.then:                                          ; preds = %entry
  %fHash2 = getelementptr inbounds %"class.icu_75::ZNStringPool", ptr %this1, i32 0, i32 1
  %1 = load ptr, ptr %fHash2, align 8
  invoke void @uhash_close_75(ptr noundef %1)
          to label %invoke.cont unwind label %terminate.lpad

invoke.cont:                                      ; preds = %if.then
  %fHash3 = getelementptr inbounds %"class.icu_75::ZNStringPool", ptr %this1, i32 0, i32 1
  store ptr null, ptr %fHash3, align 8
  br label %if.end

if.end:                                           ; preds = %invoke.cont, %entry
  br label %while.cond

while.cond:                                       ; preds = %delete.end, %if.end
  %fChunks = getelementptr inbounds %"class.icu_75::ZNStringPool", ptr %this1, i32 0, i32 0
  %2 = load ptr, ptr %fChunks, align 8
  %cmp4 = icmp ne ptr %2, null
  br i1 %cmp4, label %while.body, label %while.end

while.body:                                       ; preds = %while.cond
  %fChunks5 = getelementptr inbounds %"class.icu_75::ZNStringPool", ptr %this1, i32 0, i32 0
  %3 = load ptr, ptr %fChunks5, align 8
  %fNext = getelementptr inbounds %"struct.icu_75::ZNStringPoolChunk", ptr %3, i32 0, i32 0
  %4 = load ptr, ptr %fNext, align 8
  store ptr %4, ptr %nextChunk, align 8
  %fChunks6 = getelementptr inbounds %"class.icu_75::ZNStringPool", ptr %this1, i32 0, i32 0
  %5 = load ptr, ptr %fChunks6, align 8
  %isnull = icmp eq ptr %5, null
  br i1 %isnull, label %delete.end, label %delete.notnull

delete.notnull:                                   ; preds = %while.body
  call void @_ZN6icu_757UMemorydlEPv(ptr noundef %5) #10
  br label %delete.end

delete.end:                                       ; preds = %delete.notnull, %while.body
  %6 = load ptr, ptr %nextChunk, align 8
  %fChunks7 = getelementptr inbounds %"class.icu_75::ZNStringPool", ptr %this1, i32 0, i32 0
  store ptr %6, ptr %fChunks7, align 8
  br label %while.cond, !llvm.loop !13

while.end:                                        ; preds = %while.cond
  ret void

terminate.lpad:                                   ; preds = %if.then
  %7 = landingpad { ptr, i32 }
          catch ptr null
  %8 = extractvalue { ptr, i32 } %7, 0
  call void @__clang_call_terminate(ptr %8) #12
  unreachable
}