; Function Attrs: mustprogress nounwind uwtable
define void @_ZN6icu_7512ZNStringPoolD2Ev(ptr nocapture noundef nonnull align 8 dereferenceable(16) %this) unnamed_addr #0 align 2 personality ptr @__gxx_personality_v0 {
entry:
  %fHash = getelementptr inbounds i8, ptr %this, i64 8
  %0 = load ptr, ptr %fHash, align 8
  %cmp.not = icmp eq ptr %0, null
  br i1 %cmp.not, label %if.end, label %if.then

if.then:                                          ; preds = %entry
  invoke void @uhash_close_75(ptr noundef nonnull %0)
          to label %invoke.cont unwind label %terminate.lpad

invoke.cont:                                      ; preds = %if.then
  store ptr null, ptr %fHash, align 8
  br label %if.end

if.end:                                           ; preds = %invoke.cont, %entry
  %.pr = load ptr, ptr %this, align 8
  %cmp4.not2 = icmp eq ptr %.pr, null
  br i1 %cmp4.not2, label %while.end, label %while.body

while.body:                                       ; preds = %if.end, %while.body
  %1 = phi ptr [ %2, %while.body ], [ %.pr, %if.end ]
  %2 = load ptr, ptr %1, align 8
  tail call void @_ZN6icu_757UMemorydlEPv(ptr noundef nonnull %1) #20
  store ptr %2, ptr %this, align 8
  %cmp4.not = icmp eq ptr %2, null
  br i1 %cmp4.not, label %while.end, label %while.body, !llvm.loop !14

while.end:                                        ; preds = %while.body, %if.end
  ret void

terminate.lpad:                                   ; preds = %if.then
  %3 = landingpad { ptr, i32 }
          catch ptr null
  %4 = extractvalue { ptr, i32 } %3, 0
  tail call void @__clang_call_terminate(ptr %4) #22
  unreachable
}